; Function Attrs: nounwind uwtable
define hidden void @zif_ob_flush(ptr noundef readonly captures(none) %0, ptr noundef writeonly captures(none) %1) local_unnamed_addr #0 {
  %3 = getelementptr inbounds nuw i8, ptr %0, i64 44
  %4 = load i32, ptr %3, align 4, !tbaa !8
  %.not = icmp eq i32 %4, 0
  br i1 %.not, label %.critedge, label %5, !prof !113

5:                                                ; preds = %2
  tail call void @zend_wrong_parameters_none_error() #22
  %6 = load ptr, ptr getelementptr inbounds nuw (i8, ptr @executor_globals, i64 960), align 8, !tbaa !112
  %7 = icmp ne ptr %6, null
  tail call void @llvm.assume(i1 %7)
  br label %22

.critedge:                                        ; preds = %2
  %8 = load ptr, ptr getelementptr inbounds nuw (i8, ptr @output_globals, i64 24), align 8, !tbaa !46
  %.not4 = icmp eq ptr %8, null
  br i1 %.not4, label %9, label %11

9:                                                ; preds = %.critedge
  tail call void (ptr, i32, ptr, ...) @php_error_docref(ptr noundef nonnull @.str, i32 noundef 8, ptr noundef nonnull @.str.9) #22
  %10 = getelementptr inbounds nuw i8, ptr %1, i64 8
  store i32 2, ptr %10, align 8, !tbaa !8
  br label %22

11:                                               ; preds = %.critedge
  %12 = tail call i32 @php_output_flush()
  %.not5 = icmp eq i32 %12, 0
  br i1 %.not5, label %20, label %13

13:                                               ; preds = %11
  %14 = load ptr, ptr getelementptr inbounds nuw (i8, ptr @output_globals, i64 24), align 8, !tbaa !46
  %15 = load ptr, ptr %14, align 8, !tbaa !78
  %16 = getelementptr inbounds nuw i8, ptr %15, i64 24
  %17 = getelementptr inbounds nuw i8, ptr %14, i64 12
  %18 = load i32, ptr %17, align 4, !tbaa !79
  tail call void (ptr, i32, ptr, ...) @php_error_docref(ptr noundef nonnull @.str, i32 noundef 8, ptr noundef nonnull @.str.10, ptr noundef nonnull %16, i32 noundef %18) #22
  %19 = getelementptr inbounds nuw i8, ptr %1, i64 8
  store i32 2, ptr %19, align 8, !tbaa !8
  br label %22

20:                                               ; preds = %11
  %21 = getelementptr inbounds nuw i8, ptr %1, i64 8
  store i32 3, ptr %21, align 8, !tbaa !8
  br label %22

22:                                               ; preds = %20, %13, %9, %5
  ret void
}